target datalayout = "e-m:e-p270:32:32-p271:32:32-p272:64:64-i64:64-i128:128-f80:128-n8:16:32:64-S128"
target triple = "x86_64-unknown-linux-gnu"

@.str = private unnamed_addr constant [55 x i8] c"\010RDRAND is not reliable on this platform; disabling.\0A\00", align 1

; Function Attrs: fn_ret_thunk_extern nounwind null_pointer_is_valid
define dso_local void @x86_init_rdrand(ptr noundef %0) local_unnamed_addr #0 align 16 {
  %2 = getelementptr i8, ptr %0, i64 56
  %3 = load volatile i64, ptr %2, align 8
  %4 = and i64 %3, 1073741824
  %5 = icmp eq i64 %4, 0
  br i1 %5, label %38, label %6

6:                                                ; preds = %21, %1
  %7 = phi i1 [ %29, %21 ], [ true, %1 ]
  %8 = phi i64 [ %22, %21 ], [ 0, %1 ]
  %9 = phi i64 [ %27, %21 ], [ 0, %1 ]
  %10 = phi i64 [ %28, %21 ], [ 0, %1 ]
  br label %11

11:                                               ; preds = %11, %6
  %12 = phi i32 [ %17, %11 ], [ 10, %6 ]
  %13 = tail call { i8, i64 } asm sideeffect "rdrand $1\0A\09/* output condition code c*/\0A", "={@ccc},=r,~{dirflag},~{fpsr},~{flags}"() #4, !srcloc !5
  %14 = extractvalue { i8, i64 } %13, 0
  %15 = icmp ult i8 %14, 2
  tail call void @llvm.assume(i1 %15)
  %16 = icmp ne i8 %14, 0
  %17 = add nsw i32 %12, -1
  %18 = icmp eq i32 %17, 0
  %19 = select i1 %16, i1 true, i1 %18
  br i1 %19, label %20, label %11, !llvm.loop !6

20:                                               ; preds = %11
  br i1 %16, label %21, label %31

21:                                               ; preds = %20
  %22 = extractvalue { i8, i64 } %13, 1
  %23 = icmp ne i64 %10, 0
  %24 = icmp ne i64 %22, %8
  %25 = select i1 %23, i1 %24, i1 false
  %26 = zext i1 %25 to i64
  %27 = add i64 %9, %26
  %28 = add nuw nsw i64 %10, 1
  %29 = icmp ult i64 %10, 7
  %30 = icmp eq i64 %28, 8
  br i1 %30, label %31, label %6, !llvm.loop !9

31:                                               ; preds = %21, %20
  %32 = phi i64 [ %9, %20 ], [ %27, %21 ]
  %33 = phi i1 [ %7, %20 ], [ %29, %21 ]
  %34 = icmp ult i64 %32, 5
  %35 = or i1 %33, %34
  br i1 %35, label %36, label %38

36:                                               ; preds = %31
  tail call void @clear_cpu_cap(ptr noundef %0, i32 noundef 158) #4
  tail call void @clear_cpu_cap(ptr noundef %0, i32 noundef 306) #4
  %37 = tail call i32 (ptr, ...) @_printk(ptr noundef nonnull @.str) #5
  br label %38

38:                                               ; preds = %36, %31, %1
  ret void
}

; Function Attrs: null_pointer_is_valid
declare dso_local void @clear_cpu_cap(ptr noundef, i32 noundef) local_unnamed_addr #1

; Function Attrs: cold null_pointer_is_valid
declare dso_local i32 @_printk(ptr noundef, ...) local_unnamed_addr #2

; Function Attrs: nocallback nofree nosync nounwind willreturn memory(inaccessiblemem: write)
declare void @llvm.assume(i1 noundef) #3


!llvm.module.flags = !{!0, !1, !2, !3, !4}

!0 = !{i32 1, !"wchar_size", i32 2}
!1 = !{i32 8, !"cf-protection-branch", i32 1}
!2 = !{i32 4, !"function_return_thunk_extern", i32 1}
!3 = !{i32 4, !"indirect_branch_cs_prefix", i32 1}
!4 = !{i32 4, !"SkipRaxSetup", i32 1}
!5 = !{i64 1795291, i64 2149291375}
!6 = distinct !{!6, !7, !8}
!7 = !{!"llvm.loop.mustprogress"}
!8 = !{!"llvm.loop.unroll.disable"}
!9 = distinct !{!9, !7, !8}
